; Function Attrs: mustprogress nounwind uwtable
define hidden { ptr, i64 } @_ZNK4llvh16FoldingSetNodeID6InternERNS_20BumpPtrAllocatorImplINS_15MallocAllocatorELm4096ELm4096EEE(ptr nocapture noundef nonnull readonly align 8 dereferenceable(144) %this, ptr noundef nonnull align 8 dereferenceable(97) %Allocator) local_unnamed_addr #0 align 2 {
entry:
  %Size.i = getelementptr inbounds i8, ptr %this, i64 8
  %0 = load i32, ptr %Size.i, align 8
  %conv.i = zext i32 %0 to i64
  %mul.i = shl nuw nsw i64 %conv.i, 2
  %call.i.i = tail call noalias noundef nonnull ptr @_ZN4llvh20BumpPtrAllocatorImplINS_15MallocAllocatorELm4096ELm4096EE8AllocateEmm(ptr noundef nonnull align 8 dereferenceable(97) %Allocator, i64 noundef %mul.i, i64 noundef 4)
  %1 = load i32, ptr %Size.i, align 8
  %conv.i3 = zext i32 %1 to i64
  %tobool.not.i.i.i.i.i.i.i = icmp eq i32 %1, 0
  br i1 %tobool.not.i.i.i.i.i.i.i, label %_ZSt18uninitialized_copyIPKjPjET0_T_S4_S3_.exit, label %if.then.i.i.i.i.i.i.i

if.then.i.i.i.i.i.i.i:                            ; preds = %entry
  %2 = load ptr, ptr %this, align 8
  %add.ptr.i.idx = shl nuw nsw i64 %conv.i3, 2
  tail call void @llvm.memmove.p0.p0.i64(ptr nonnull align 4 %call.i.i, ptr align 4 %2, i64 %add.ptr.i.idx, i1 false)
  br label %_ZSt18uninitialized_copyIPKjPjET0_T_S4_S3_.exit

_ZSt18uninitialized_copyIPKjPjET0_T_S4_S3_.exit:  ; preds = %entry, %if.then.i.i.i.i.i.i.i
  %.fca.0.insert = insertvalue { ptr, i64 } poison, ptr %call.i.i, 0
  %.fca.1.insert = insertvalue { ptr, i64 } %.fca.0.insert, i64 %conv.i3, 1
  ret { ptr, i64 } %.fca.1.insert
}